target datalayout = "e-m:e-p270:32:32-p271:32:32-p272:64:64-i64:64-i128:128-f80:128-n8:16:32:64-S128"
target triple = "x86_64-pc-linux-gnu"

%"class.google::protobuf::internal::InternalMetadata" = type { i64 }
%"class.google::protobuf::internal::HasBits" = type { [1 x i32] }
%"class.google::protobuf::RepeatedField.0" = type { i32, i32, ptr }
%"class.google::protobuf::Message" = type { %"class.google::protobuf::MessageLite" }
%"class.google::protobuf::MessageLite" = type { ptr, %"class.google::protobuf::internal::InternalMetadata" }
%"struct.std::atomic" = type { %"struct.std::__atomic_base" }
%"struct.std::__atomic_base" = type { i32 }
%"class.google::protobuf::internal::CachedSize" = type { %"struct.std::atomic" }
%"class.google::protobuf::internal::LogMessage" = type { i32, ptr, i32, %"class.std::__cxx11::basic_string" }
%"class.std::__cxx11::basic_string" = type { %"struct.std::__cxx11::basic_string<char>::_Alloc_hider", i64, %union.anon.88 }
%"struct.std::__cxx11::basic_string<char>::_Alloc_hider" = type { ptr }
%union.anon.88 = type { i64, [8 x i8] }
%"class.google::protobuf::internal::LogFinisher" = type { i8 }
%"class.opencv_caffe::EltwiseParameter" = type <{ %"class.google::protobuf::Message", %"class.google::protobuf::internal::HasBits", %"class.google::protobuf::internal::CachedSize", %"class.google::protobuf::RepeatedField.0", i32, i8, [3 x i8] }>

@.str.129 = private unnamed_addr constant [146 x i8] c"generated/home/dtcxzyw/WorkSpace/Projects/compilers/llvm-opt-benchmark/bench/opencv/opencv/3rdparty/protobuf/src/google/protobuf/repeated_field.h\00", align 1
@.str.207 = private unnamed_addr constant [30 x i8] c"CHECK failed: this != other: \00", align 1

; Function Attrs: inlinehint mustprogress nounwind uwtable
define linkonce_odr hidden void @_ZN6google8protobuf8internal7memswapILi0EEENSt9enable_ifIXeqT_Li0EEvE4typeEPcS6_(ptr noundef %0, ptr noundef %1) #7 comdat {
  %3 = alloca ptr, align 8
  %4 = alloca ptr, align 8
  store ptr %0, ptr %3, align 8, !tbaa !37
  store ptr %1, ptr %4, align 8, !tbaa !37
  ret void
}

; Function Attrs: inlinehint mustprogress nounwind uwtable
define linkonce_odr hidden void @_ZN6google8protobuf8internal9SwapBlockIoEEvPcS3_(ptr noundef %0, ptr noundef %1) #7 comdat {
  %3 = alloca ptr, align 8
  %4 = alloca ptr, align 8
  %5 = alloca i128, align 16
  store ptr %0, ptr %3, align 8, !tbaa !37
  store ptr %1, ptr %4, align 8, !tbaa !37
  call void @llvm.lifetime.start.p0(i64 16, ptr %5) #3
  %6 = load ptr, ptr %3, align 8, !tbaa !37
  call void @llvm.memcpy.p0.p0.i64(ptr align 16 %5, ptr align 1 %6, i64 16, i1 false)
  %7 = load ptr, ptr %3, align 8, !tbaa !37
  %8 = load ptr, ptr %4, align 8, !tbaa !37
  call void @llvm.memcpy.p0.p0.i64(ptr align 1 %7, ptr align 1 %8, i64 16, i1 false)
  %9 = load ptr, ptr %4, align 8, !tbaa !37
  call void @llvm.memcpy.p0.p0.i64(ptr align 1 %9, ptr align 16 %5, i64 16, i1 false)
  call void @llvm.lifetime.end.p0(i64 16, ptr %5) #3
  ret void
}

; Function Attrs: mustprogress nounwind uwtable
define linkonce_odr hidden void @_ZN6google8protobuf8internal7memswapILi16EEENSt9enable_ifIXaageT_Lm16EltT_lsLj1ELi31EEvE4typeEPcS6_(ptr noundef %0, ptr noundef %1) #5 comdat {
  %3 = alloca ptr, align 8
  %4 = alloca ptr, align 8
  store ptr %0, ptr %3, align 8, !tbaa !37
  store ptr %1, ptr %4, align 8, !tbaa !37
  %5 = load ptr, ptr %3, align 8, !tbaa !37
  %6 = load ptr, ptr %4, align 8, !tbaa !37
  call void @_ZN6google8protobuf8internal9SwapBlockIoEEvPcS3_(ptr noundef %5, ptr noundef %6)
  %7 = load ptr, ptr %3, align 8, !tbaa !37
  %8 = getelementptr inbounds nuw i8, ptr %7, i64 16
  %9 = load ptr, ptr %4, align 8, !tbaa !37
  %10 = getelementptr inbounds nuw i8, ptr %9, i64 16
  call void @_ZN6google8protobuf8internal7memswapILi0EEENSt9enable_ifIXeqT_Li0EEvE4typeEPcS6_(ptr noundef %8, ptr noundef %10)
  ret void
}

; Function Attrs: inlinehint mustprogress nounwind uwtable
define linkonce_odr void @_ZSt4swapIlENSt9enable_ifIXsr6__and_ISt6__not_ISt15__is_tuple_likeIT_EESt21is_move_constructibleIS3_ESt18is_move_assignableIS3_EEE5valueEvE4typeERS3_SC_(ptr noundef nonnull align 8 dereferenceable(8) %0, ptr noundef nonnull align 8 dereferenceable(8) %1) #7 comdat {
  %3 = alloca ptr, align 8
  %4 = alloca ptr, align 8
  %5 = alloca i64, align 8
  store ptr %0, ptr %3, align 8, !tbaa !420
  store ptr %1, ptr %4, align 8, !tbaa !420
  call void @llvm.lifetime.start.p0(i64 8, ptr %5) #3
  %6 = load ptr, ptr %3, align 8, !tbaa !420
  %7 = load i64, ptr %6, align 8, !tbaa !59
  store i64 %7, ptr %5, align 8, !tbaa !59
  %8 = load ptr, ptr %4, align 8, !tbaa !420
  %9 = load i64, ptr %8, align 8, !tbaa !59
  %10 = load ptr, ptr %3, align 8, !tbaa !420
  store i64 %9, ptr %10, align 8, !tbaa !59
  %11 = load i64, ptr %5, align 8, !tbaa !59
  %12 = load ptr, ptr %4, align 8, !tbaa !420
  store i64 %11, ptr %12, align 8, !tbaa !59
  call void @llvm.lifetime.end.p0(i64 8, ptr %5) #3
  ret void
}

; Function Attrs: inlinehint mustprogress nounwind uwtable
define linkonce_odr void @_ZSt4swapIbENSt9enable_ifIXsr6__and_ISt6__not_ISt15__is_tuple_likeIT_EESt21is_move_constructibleIS3_ESt18is_move_assignableIS3_EEE5valueEvE4typeERS3_SC_(ptr noundef nonnull align 1 dereferenceable(1) %0, ptr noundef nonnull align 1 dereferenceable(1) %1) #7 comdat {
  %3 = alloca ptr, align 8
  %4 = alloca ptr, align 8
  %5 = alloca i8, align 1
  store ptr %0, ptr %3, align 8, !tbaa !184
  store ptr %1, ptr %4, align 8, !tbaa !184
  call void @llvm.lifetime.start.p0(i64 1, ptr %5) #3
  %6 = load ptr, ptr %3, align 8, !tbaa !184
  %7 = load i8, ptr %6, align 1, !tbaa !14, !range !16, !noundef !17
  %8 = trunc i8 %7 to i1
  %9 = zext i1 %8 to i8
  store i8 %9, ptr %5, align 1, !tbaa !14
  %10 = load ptr, ptr %4, align 8, !tbaa !184
  %11 = load i8, ptr %10, align 1, !tbaa !14, !range !16, !noundef !17
  %12 = trunc i8 %11 to i1
  %13 = load ptr, ptr %3, align 8, !tbaa !184
  %14 = zext i1 %12 to i8
  store i8 %14, ptr %13, align 1, !tbaa !14
  %15 = load i8, ptr %5, align 1, !tbaa !14, !range !16, !noundef !17
  %16 = trunc i8 %15 to i1
  %17 = load ptr, ptr %4, align 8, !tbaa !184
  %18 = zext i1 %16 to i8
  store i8 %18, ptr %17, align 1, !tbaa !14
  call void @llvm.lifetime.end.p0(i64 1, ptr %5) #3
  ret void
}

; Function Attrs: inlinehint mustprogress nounwind uwtable
define linkonce_odr void @_ZSt4swapIiENSt9enable_ifIXsr6__and_ISt6__not_ISt15__is_tuple_likeIT_EESt21is_move_constructibleIS3_ESt18is_move_assignableIS3_EEE5valueEvE4typeERS3_SC_(ptr noundef nonnull align 4 dereferenceable(4) %0, ptr noundef nonnull align 4 dereferenceable(4) %1) #7 comdat {
  %3 = alloca ptr, align 8
  %4 = alloca ptr, align 8
  %5 = alloca i32, align 4
  store ptr %0, ptr %3, align 8, !tbaa !53
  store ptr %1, ptr %4, align 8, !tbaa !53
  call void @llvm.lifetime.start.p0(i64 4, ptr %5) #3
  %6 = load ptr, ptr %3, align 8, !tbaa !53
  %7 = load i32, ptr %6, align 4, !tbaa !8
  store i32 %7, ptr %5, align 4, !tbaa !8
  %8 = load ptr, ptr %4, align 8, !tbaa !53
  %9 = load i32, ptr %8, align 4, !tbaa !8
  %10 = load ptr, ptr %3, align 8, !tbaa !53
  store i32 %9, ptr %10, align 4, !tbaa !8
  %11 = load i32, ptr %5, align 4, !tbaa !8
  %12 = load ptr, ptr %4, align 8, !tbaa !53
  store i32 %11, ptr %12, align 4, !tbaa !8
  call void @llvm.lifetime.end.p0(i64 4, ptr %5) #3
  ret void
}

; Function Attrs: inlinehint mustprogress uwtable
define available_externally void @_ZN6google8protobuf13RepeatedFieldIfE12InternalSwapEPS2_(ptr noundef nonnull align 8 dereferenceable(16) %0, ptr noundef %1) #6 align 2 personality ptr @__gxx_personality_v0 {
  %3 = alloca ptr, align 8
  %4 = alloca ptr, align 8
  %5 = alloca %"class.google::protobuf::internal::LogMessage", align 8
  %6 = alloca i1, align 1
  %7 = alloca i1, align 1
  %8 = alloca ptr, align 8
  %9 = alloca i32, align 4
  %10 = alloca %"class.google::protobuf::internal::LogFinisher", align 1
  store ptr %0, ptr %3, align 8, !tbaa !89
  store ptr %1, ptr %4, align 8, !tbaa !89
  %11 = load ptr, ptr %3, align 8
  br label %12

12:                                               ; preds = %27, %2
  br i1 false, label %13, label %43

13:                                               ; preds = %12
  %14 = load ptr, ptr %4, align 8, !tbaa !89
  %15 = icmp ne ptr %11, %14
  store i1 false, ptr %6, align 1
  store i1 false, ptr %7, align 1
  call void @llvm.lifetime.start.p0(i64 1, ptr %10) #3
  br i1 %15, label %16, label %17

16:                                               ; preds = %13
  br label %21

17:                                               ; preds = %13
  call void @llvm.lifetime.start.p0(i64 56, ptr %5) #3
  store i1 true, ptr %6, align 1
  call void @_ZN6google8protobuf8internal10LogMessageC1ENS0_8LogLevelEPKci(ptr noundef nonnull align 8 dereferenceable(56) %5, i32 noundef 3, ptr noundef @.str.129, i32 noundef 804)
  store i1 true, ptr %7, align 1
  %18 = invoke noundef nonnull align 8 dereferenceable(56) ptr @_ZN6google8protobuf8internal10LogMessagelsEPKc(ptr noundef nonnull align 8 dereferenceable(56) %5, ptr noundef @.str.207)
          to label %19 unwind label %28

19:                                               ; preds = %17
  invoke void @_ZN6google8protobuf8internal11LogFinisheraSERNS1_10LogMessageE(ptr noundef nonnull align 1 dereferenceable(1) %10, ptr noundef nonnull align 8 dereferenceable(56) %18)
          to label %20 unwind label %32

20:                                               ; preds = %19
  br label %21

21:                                               ; preds = %20, %16
  call void @llvm.lifetime.end.p0(i64 1, ptr %10) #3
  %22 = load i1, ptr %7, align 1
  br i1 %22, label %23, label %24

23:                                               ; preds = %21
  call void @_ZN6google8protobuf8internal10LogMessageD1Ev(ptr noundef nonnull align 8 dereferenceable(56) %5) #3
  br label %24

24:                                               ; preds = %23, %21
  %25 = load i1, ptr %6, align 1
  br i1 %25, label %26, label %27

26:                                               ; preds = %24
  call void @llvm.lifetime.end.p0(i64 56, ptr %5) #3
  br label %27

27:                                               ; preds = %26, %24
  br label %12, !llvm.loop !128

28:                                               ; preds = %17
  %29 = landingpad { ptr, i32 }
          cleanup
  %30 = extractvalue { ptr, i32 } %29, 0
  store ptr %30, ptr %8, align 8
  %31 = extractvalue { ptr, i32 } %29, 1
  store i32 %31, ptr %9, align 4
  br label %36

32:                                               ; preds = %19
  %33 = landingpad { ptr, i32 }
          cleanup
  %34 = extractvalue { ptr, i32 } %33, 0
  store ptr %34, ptr %8, align 8
  %35 = extractvalue { ptr, i32 } %33, 1
  store i32 %35, ptr %9, align 4
  call void @llvm.lifetime.end.p0(i64 1, ptr %10) #3
  br label %36

36:                                               ; preds = %32, %28
  %37 = load i1, ptr %7, align 1
  br i1 %37, label %38, label %39

38:                                               ; preds = %36
  call void @_ZN6google8protobuf8internal10LogMessageD1Ev(ptr noundef nonnull align 8 dereferenceable(56) %5) #3
  br label %39

39:                                               ; preds = %38, %36
  %40 = load i1, ptr %6, align 1
  br i1 %40, label %41, label %42

41:                                               ; preds = %39
  call void @llvm.lifetime.end.p0(i64 56, ptr %5) #3
  br label %42

42:                                               ; preds = %41, %39
  br label %47

43:                                               ; preds = %12
  %44 = getelementptr inbounds nuw i8, ptr %11, i64 0
  %45 = load ptr, ptr %4, align 8, !tbaa !89
  %46 = getelementptr inbounds nuw i8, ptr %45, i64 0
  call void @_ZN6google8protobuf8internal7memswapILi16EEENSt9enable_ifIXaageT_Lm16EltT_lsLj1ELi31EEvE4typeEPcS6_(ptr noundef %44, ptr noundef %46)
  ret void

47:                                               ; preds = %42
  %48 = load ptr, ptr %8, align 8
  %49 = load i32, ptr %9, align 4
  %50 = insertvalue { ptr, i32 } poison, ptr %48, 0
  %51 = insertvalue { ptr, i32 } %50, i32 %49, 1
  resume { ptr, i32 } %51
}

; Function Attrs: inlinehint mustprogress nounwind uwtable
define linkonce_odr void @_ZSt4swapIjENSt9enable_ifIXsr6__and_ISt6__not_ISt15__is_tuple_likeIT_EESt21is_move_constructibleIS3_ESt18is_move_assignableIS3_EEE5valueEvE4typeERS3_SC_(ptr noundef nonnull align 4 dereferenceable(4) %0, ptr noundef nonnull align 4 dereferenceable(4) %1) #7 comdat {
  %3 = alloca ptr, align 8
  %4 = alloca ptr, align 8
  %5 = alloca i32, align 4
  store ptr %0, ptr %3, align 8, !tbaa !53
  store ptr %1, ptr %4, align 8, !tbaa !53
  call void @llvm.lifetime.start.p0(i64 4, ptr %5) #3
  %6 = load ptr, ptr %3, align 8, !tbaa !53
  %7 = load i32, ptr %6, align 4, !tbaa !8
  store i32 %7, ptr %5, align 4, !tbaa !8
  %8 = load ptr, ptr %4, align 8, !tbaa !53
  %9 = load i32, ptr %8, align 4, !tbaa !8
  %10 = load ptr, ptr %3, align 8, !tbaa !53
  store i32 %9, ptr %10, align 4, !tbaa !8
  %11 = load i32, ptr %5, align 4, !tbaa !8
  %12 = load ptr, ptr %4, align 8, !tbaa !53
  store i32 %11, ptr %12, align 4, !tbaa !8
  call void @llvm.lifetime.end.p0(i64 4, ptr %5) #3
  ret void
}

; Function Attrs: alwaysinline mustprogress nounwind uwtable
define linkonce_odr hidden noundef nonnull align 4 dereferenceable(4) ptr @_ZN6google8protobuf8internal7HasBitsILm1EEixEi(ptr noundef nonnull align 4 dereferenceable(4) %0, i32 noundef %1) #13 comdat align 2 {
  %3 = alloca ptr, align 8
  %4 = alloca i32, align 4
  store ptr %0, ptr %3, align 8, !tbaa !87
  store i32 %1, ptr %4, align 4, !tbaa !8
  %5 = load ptr, ptr %3, align 8
  %6 = getelementptr inbounds nuw %"class.google::protobuf::internal::HasBits", ptr %5, i32 0, i32 0
  %7 = load i32, ptr %4, align 4, !tbaa !8
  %8 = sext i32 %7 to i64
  %9 = getelementptr inbounds [1 x i32], ptr %6, i64 0, i64 %8
  ret ptr %9
}

; Function Attrs: alwaysinline mustprogress nounwind uwtable
define linkonce_odr hidden void @_ZN6google8protobuf8internal16InternalMetadata12InternalSwapEPS2_(ptr noundef nonnull align 8 dereferenceable(8) %0, ptr noundef %1) #13 comdat align 2 {
  %3 = alloca ptr, align 8
  %4 = alloca ptr, align 8
  store ptr %0, ptr %3, align 8, !tbaa !32
  store ptr %1, ptr %4, align 8, !tbaa !32
  %5 = load ptr, ptr %3, align 8
  %6 = getelementptr inbounds nuw %"class.google::protobuf::internal::InternalMetadata", ptr %5, i32 0, i32 0
  %7 = load ptr, ptr %4, align 8, !tbaa !32
  %8 = getelementptr inbounds nuw %"class.google::protobuf::internal::InternalMetadata", ptr %7, i32 0, i32 0
  call void @_ZSt4swapIlENSt9enable_ifIXsr6__and_ISt6__not_ISt15__is_tuple_likeIT_EESt21is_move_constructibleIS3_ESt18is_move_assignableIS3_EEE5valueEvE4typeERS3_SC_(ptr noundef nonnull align 8 dereferenceable(8) %6, ptr noundef nonnull align 8 dereferenceable(8) %8) #3
  ret void
}

; Function Attrs: mustprogress uwtable
define hidden void @_ZN12opencv_caffe16EltwiseParameter12InternalSwapEPS0_(ptr noundef nonnull align 8 dereferenceable(48) %0, ptr noundef %1) #4 align 2 {
  %3 = alloca ptr, align 8
  %4 = alloca ptr, align 8
  store ptr %0, ptr %3, align 8, !tbaa !733
  store ptr %1, ptr %4, align 8, !tbaa !733
  %5 = load ptr, ptr %3, align 8
  %6 = getelementptr inbounds nuw %"class.google::protobuf::MessageLite", ptr %5, i32 0, i32 1
  %7 = load ptr, ptr %4, align 8, !tbaa !733
  %8 = getelementptr inbounds nuw %"class.google::protobuf::MessageLite", ptr %7, i32 0, i32 1
  call void @_ZN6google8protobuf8internal16InternalMetadata12InternalSwapEPS2_(ptr noundef nonnull align 8 dereferenceable(8) %6, ptr noundef %8)
  %9 = getelementptr inbounds nuw %"class.opencv_caffe::EltwiseParameter", ptr %5, i32 0, i32 1
  %10 = call noundef nonnull align 4 dereferenceable(4) ptr @_ZN6google8protobuf8internal7HasBitsILm1EEixEi(ptr noundef nonnull align 4 dereferenceable(4) %9, i32 noundef 0)
  %11 = load ptr, ptr %4, align 8, !tbaa !733
  %12 = getelementptr inbounds nuw %"class.opencv_caffe::EltwiseParameter", ptr %11, i32 0, i32 1
  %13 = call noundef nonnull align 4 dereferenceable(4) ptr @_ZN6google8protobuf8internal7HasBitsILm1EEixEi(ptr noundef nonnull align 4 dereferenceable(4) %12, i32 noundef 0)
  call void @_ZSt4swapIjENSt9enable_ifIXsr6__and_ISt6__not_ISt15__is_tuple_likeIT_EESt21is_move_constructibleIS3_ESt18is_move_assignableIS3_EEE5valueEvE4typeERS3_SC_(ptr noundef nonnull align 4 dereferenceable(4) %10, ptr noundef nonnull align 4 dereferenceable(4) %13) #3
  %14 = getelementptr inbounds nuw %"class.opencv_caffe::EltwiseParameter", ptr %5, i32 0, i32 3
  %15 = load ptr, ptr %4, align 8, !tbaa !733
  %16 = getelementptr inbounds nuw %"class.opencv_caffe::EltwiseParameter", ptr %15, i32 0, i32 3
  call void @_ZN6google8protobuf13RepeatedFieldIfE12InternalSwapEPS2_(ptr noundef nonnull align 8 dereferenceable(16) %14, ptr noundef %16)
  %17 = getelementptr inbounds nuw %"class.opencv_caffe::EltwiseParameter", ptr %5, i32 0, i32 4
  %18 = load ptr, ptr %4, align 8, !tbaa !733
  %19 = getelementptr inbounds nuw %"class.opencv_caffe::EltwiseParameter", ptr %18, i32 0, i32 4
  call void @_ZSt4swapIiENSt9enable_ifIXsr6__and_ISt6__not_ISt15__is_tuple_likeIT_EESt21is_move_constructibleIS3_ESt18is_move_assignableIS3_EEE5valueEvE4typeERS3_SC_(ptr noundef nonnull align 4 dereferenceable(4) %17, ptr noundef nonnull align 4 dereferenceable(4) %19) #3
  %20 = getelementptr inbounds nuw %"class.opencv_caffe::EltwiseParameter", ptr %5, i32 0, i32 5
  %21 = load ptr, ptr %4, align 8, !tbaa !733
  %22 = getelementptr inbounds nuw %"class.opencv_caffe::EltwiseParameter", ptr %21, i32 0, i32 5
  call void @_ZSt4swapIbENSt9enable_ifIXsr6__and_ISt6__not_ISt15__is_tuple_likeIT_EESt21is_move_constructibleIS3_ESt18is_move_assignableIS3_EEE5valueEvE4typeERS3_SC_(ptr noundef nonnull align 1 dereferenceable(1) %20, ptr noundef nonnull align 1 dereferenceable(1) %22) #3
  ret void
}