; Function Attrs: mustprogress nofree norecurse nosync nounwind willreturn memory(argmem: readwrite) uwtable
define hidden void @_ZN12opencv_caffe16EltwiseParameter12InternalSwapEPS0_(ptr noundef nonnull align 8 captures(none) dereferenceable(48) %0, ptr noundef captures(none) %1) local_unnamed_addr #13 align 2 personality ptr @__gxx_personality_v0 {
  %3 = getelementptr inbounds nuw i8, ptr %0, i64 8
  %4 = getelementptr inbounds nuw i8, ptr %1, i64 8
  %5 = load i64, ptr %3, align 8, !tbaa !42
  %6 = load i64, ptr %4, align 8, !tbaa !42
  store i64 %6, ptr %3, align 8, !tbaa !42
  store i64 %5, ptr %4, align 8, !tbaa !42
  %7 = getelementptr inbounds nuw i8, ptr %0, i64 16
  %8 = getelementptr inbounds nuw i8, ptr %1, i64 16
  %9 = load i32, ptr %7, align 8, !tbaa !71
  %10 = load i32, ptr %8, align 4, !tbaa !71
  store i32 %10, ptr %7, align 8, !tbaa !71
  store i32 %9, ptr %8, align 4, !tbaa !71
  %11 = getelementptr inbounds nuw i8, ptr %0, i64 24
  %12 = getelementptr inbounds nuw i8, ptr %1, i64 24
  %.0.copyload.i.i.i = load i128, ptr %11, align 8
  tail call void @llvm.memcpy.p0.p0.i64(ptr noundef nonnull align 8 dereferenceable(16) %11, ptr noundef nonnull align 1 dereferenceable(16) %12, i64 16, i1 false)
  store i128 %.0.copyload.i.i.i, ptr %12, align 1
  %13 = getelementptr inbounds nuw i8, ptr %0, i64 40
  %14 = getelementptr inbounds nuw i8, ptr %1, i64 40
  %15 = load i32, ptr %13, align 8, !tbaa !71
  %16 = load i32, ptr %14, align 4, !tbaa !71
  store i32 %16, ptr %13, align 8, !tbaa !71
  store i32 %15, ptr %14, align 4, !tbaa !71
  %17 = getelementptr inbounds nuw i8, ptr %0, i64 44
  %18 = getelementptr inbounds nuw i8, ptr %1, i64 44
  %19 = load i8, ptr %17, align 4, !tbaa !133, !range !126, !noundef !127
  %20 = load i8, ptr %18, align 1, !tbaa !133, !range !126, !noundef !127
  store i8 %20, ptr %17, align 4, !tbaa !133
  store i8 %19, ptr %18, align 1, !tbaa !133
  ret void
}